target datalayout = "e-m:e-p270:32:32-p271:32:32-p272:64:64-i64:64-i128:128-f80:128-n8:16:32:64-S128"
target triple = "x86_64-pc-linux-gnu"

%"class.llvm::StringRef" = type { ptr, i64 }
%"class.clang::LangOptionsBase" = type <{ i64, i64, i64, i64, i64, i64, i64, i64, i64, i64, i64, i64, i64, i64, i64, i64, i64, i64, i64, i64, i64, i64, i64, i64, i64, i16, [2 x i8] }>
%"class.(anonymous namespace)::ASTInfoCollector" = type <{ %"class.clang::ASTReaderListener", ptr, ptr, ptr, ptr, ptr, ptr, ptr, ptr, i8, i8, [6 x i8] }>
%"class.clang::ASTReaderListener" = type { ptr }

; Function Attrs: mustprogress nounwind uwtable
define internal noundef zeroext i1 @_ZN12_GLOBAL__N_116ASTInfoCollector19ReadLanguageOptionsERKN5clang11LangOptionsEN4llvm9StringRefEbb(ptr noundef nonnull align 8 dereferenceable(74) %0, ptr noundef nonnull align 8 dereferenceable(841) %1, ptr %2, i64 %3, i1 noundef zeroext %4, i1 noundef zeroext %5) unnamed_addr #0 align 2 {
  %7 = alloca i1, align 1
  %8 = alloca %"class.llvm::StringRef", align 8
  %9 = alloca ptr, align 8
  %10 = alloca ptr, align 8
  %11 = alloca i8, align 1
  %12 = alloca i8, align 1
  %13 = alloca i32, align 4
  %14 = alloca i32, align 4
  %15 = getelementptr inbounds nuw { ptr, i64 }, ptr %8, i32 0, i32 0
  store ptr %2, ptr %15, align 8
  %16 = getelementptr inbounds nuw { ptr, i64 }, ptr %8, i32 0, i32 1
  store i64 %3, ptr %16, align 8
  store ptr %0, ptr %9, align 8
  store ptr %1, ptr %10, align 8
  %17 = zext i1 %4 to i8
  store i8 %17, ptr %11, align 1
  %18 = zext i1 %5 to i8
  store i8 %18, ptr %12, align 1
  %19 = load ptr, ptr %9, align 8
  %20 = getelementptr inbounds nuw %"class.(anonymous namespace)::ASTInfoCollector", ptr %19, i32 0, i32 9
  %21 = load i8, ptr %20, align 8
  %22 = trunc i8 %21 to i1
  br i1 %22, label %23, label %24

23:                                               ; preds = %6
  store i1 false, ptr %7, align 1
  br label %64

24:                                               ; preds = %6
  %25 = getelementptr inbounds nuw %"class.(anonymous namespace)::ASTInfoCollector", ptr %19, i32 0, i32 5
  %26 = load ptr, ptr %25, align 8
  %27 = getelementptr inbounds nuw %"class.clang::LangOptionsBase", ptr %26, i32 0, i32 5
  %28 = load i64, ptr %27, align 8
  %29 = lshr i64 %28, 35
  %30 = and i64 %29, 3
  %31 = trunc i64 %30 to i32
  store i32 %31, ptr %13, align 4
  %32 = getelementptr inbounds nuw %"class.(anonymous namespace)::ASTInfoCollector", ptr %19, i32 0, i32 5
  %33 = load ptr, ptr %32, align 8
  %34 = getelementptr inbounds nuw %"class.clang::LangOptionsBase", ptr %33, i32 0, i32 5
  %35 = load i64, ptr %34, align 8
  %36 = lshr i64 %35, 37
  %37 = and i64 %36, 1
  %38 = trunc i64 %37 to i32
  store i32 %38, ptr %14, align 4
  %39 = load ptr, ptr %10, align 8
  %40 = getelementptr inbounds nuw %"class.(anonymous namespace)::ASTInfoCollector", ptr %19, i32 0, i32 5
  %41 = load ptr, ptr %40, align 8
  %42 = call noundef nonnull align 8 dereferenceable(841) ptr @_ZN5clang11LangOptionsaSERKS0_(ptr noundef nonnull align 8 dereferenceable(841) %41, ptr noundef nonnull align 8 dereferenceable(841) %39)
  %43 = load i32, ptr %13, align 4
  %44 = getelementptr inbounds nuw %"class.(anonymous namespace)::ASTInfoCollector", ptr %19, i32 0, i32 5
  %45 = load ptr, ptr %44, align 8
  %46 = getelementptr inbounds nuw %"class.clang::LangOptionsBase", ptr %45, i32 0, i32 5
  %47 = zext i32 %43 to i64
  %48 = load i64, ptr %46, align 8
  %49 = and i64 %47, 3
  %50 = shl i64 %49, 35
  %51 = and i64 %48, -103079215105
  %52 = or i64 %51, %50
  store i64 %52, ptr %46, align 8
  %53 = load i32, ptr %14, align 4
  %54 = getelementptr inbounds nuw %"class.(anonymous namespace)::ASTInfoCollector", ptr %19, i32 0, i32 5
  %55 = load ptr, ptr %54, align 8
  %56 = getelementptr inbounds nuw %"class.clang::LangOptionsBase", ptr %55, i32 0, i32 5
  %57 = zext i32 %53 to i64
  %58 = load i64, ptr %56, align 8
  %59 = and i64 %57, 1
  %60 = shl i64 %59, 37
  %61 = and i64 %58, -137438953473
  %62 = or i64 %61, %60
  store i64 %62, ptr %56, align 8
  %63 = getelementptr inbounds nuw %"class.(anonymous namespace)::ASTInfoCollector", ptr %19, i32 0, i32 9
  store i8 1, ptr %63, align 8
  call void @_ZN12_GLOBAL__N_116ASTInfoCollector7updatedEv(ptr noundef nonnull align 8 dereferenceable(74) %19)
  store i1 false, ptr %7, align 1
  br label %64

64:                                               ; preds = %24, %23
  %65 = load i1, ptr %7, align 1
  ret i1 %65
}