; Function Attrs: mustprogress nounwind uwtable
define internal noundef zeroext i1 @_ZN12_GLOBAL__N_116ASTInfoCollector19ReadLanguageOptionsERKN5clang11LangOptionsEN4llvm9StringRefEbb(ptr noundef nonnull align 8 captures(none) dereferenceable(74) %0, ptr noundef nonnull align 8 dereferenceable(841) %1, ptr readnone captures(none) %2, i64 %3, i1 zeroext %4, i1 zeroext %5) unnamed_addr #0 align 2 {
  %7 = getelementptr inbounds nuw i8, ptr %0, i64 72
  %8 = load i8, ptr %7, align 8
  %9 = trunc i8 %8 to i1
  br i1 %9, label %28, label %10

10:                                               ; preds = %6
  %11 = getelementptr inbounds nuw i8, ptr %0, i64 40
  %12 = load ptr, ptr %11, align 8
  %13 = getelementptr inbounds nuw i8, ptr %12, i64 40
  %14 = load i64, ptr %13, align 8
  %15 = and i64 %14, 103079215104
  %16 = and i64 %14, 137438953472
  %17 = tail call noundef nonnull align 8 dereferenceable(841) ptr @_ZN5clang11LangOptionsaSERKS0_(ptr noundef nonnull align 8 dereferenceable(841) %12, ptr noundef nonnull align 8 dereferenceable(841) %1)
  %18 = load ptr, ptr %11, align 8
  %19 = getelementptr inbounds nuw i8, ptr %18, i64 40
  %20 = load i64, ptr %19, align 8
  %21 = and i64 %20, -103079215105
  %22 = or disjoint i64 %21, %15
  store i64 %22, ptr %19, align 8
  %23 = load ptr, ptr %11, align 8
  %24 = getelementptr inbounds nuw i8, ptr %23, i64 40
  %25 = load i64, ptr %24, align 8
  %26 = and i64 %25, -137438953473
  %27 = or disjoint i64 %26, %16
  store i64 %27, ptr %24, align 8
  store i8 1, ptr %7, align 8
  tail call fastcc void @_ZN12_GLOBAL__N_116ASTInfoCollector7updatedEv(ptr noundef nonnull align 8 dereferenceable(74) %0)
  br label %28

28:                                               ; preds = %6, %10
  ret i1 false
}